target datalayout = "e-m:e-p270:32:32-p271:32:32-p272:64:64-i64:64-i128:128-f80:128-n8:16:32:64-S128"
target triple = "x86_64-pc-linux-gnu"

%struct._value_string_ext = type { ptr, i32, i32, ptr, ptr }
%struct._packet_info = type { ptr, ptr, i32, i32, %struct.nstime_t, %struct.nstime_t, %struct.nstime_t, i8, ptr, ptr, ptr, ptr, %struct._address, %struct._address, %struct._address, %struct._address, %struct._address, %struct._address, i32, ptr, i8, [3 x i8], %struct.anon, i32, i32, i32, i32, ptr, i8, ptr, ptr, i16, i16, i32, i32, i16, i32, i32, ptr, ptr, ptr, i8, i8, i16, i16, i16, i32, i16, i16, ptr, ptr, ptr, ptr, ptr, i32, i32 }
%struct.nstime_t = type { i64, i32 }
%struct._address = type { i32, i32, ptr, ptr }
%struct.anon = type { i8, [3 x i8] }

@hf_nas_eps_esm_cause = internal global i32 0, align 4
@nas_eps_esm_cause_vals_ext = internal global %struct._value_string_ext { ptr @_try_val_to_str_ext_init, i32 0, i32 48, ptr @nas_eps_esm_cause_vals, ptr @.str.1237 }, align 8
@.str.956 = private unnamed_addr constant [6 x i8] c" (%s)\00", align 1
@.str.957 = private unnamed_addr constant [8 x i8] c"Unknown\00", align 1

; Function Attrs: null_pointer_is_valid sspstrong uwtable
define internal zeroext i16 @de_esm_cause(ptr noundef %0, ptr noundef %1, ptr noundef %2, i32 noundef %3, i32 noundef %4, ptr noundef %5, i32 noundef %6) #1 {
  %8 = alloca ptr, align 8
  %9 = alloca ptr, align 8
  %10 = alloca ptr, align 8
  %11 = alloca i32, align 4
  %12 = alloca i32, align 4
  %13 = alloca ptr, align 8
  %14 = alloca i32, align 4
  %15 = alloca i32, align 4
  %16 = alloca i8, align 1
  store ptr %0, ptr %8, align 8
  store ptr %1, ptr %9, align 8
  store ptr %2, ptr %10, align 8
  store i32 %3, ptr %11, align 4
  store i32 %4, ptr %12, align 4
  store ptr %5, ptr %13, align 8
  store i32 %6, ptr %14, align 4
  call void @llvm.lifetime.start.p0(i64 4, ptr %15) #10
  call void @llvm.lifetime.start.p0(i64 1, ptr %16) #10
  %17 = load i32, ptr %11, align 4
  store i32 %17, ptr %15, align 4
  %18 = load ptr, ptr %8, align 8
  %19 = load i32, ptr %15, align 4
  %20 = call zeroext i8 @tvb_get_uint8(ptr noundef %18, i32 noundef %19)
  store i8 %20, ptr %16, align 1
  %21 = load ptr, ptr %9, align 8
  %22 = load i32, ptr @hf_nas_eps_esm_cause, align 4
  %23 = load ptr, ptr %8, align 8
  %24 = load i32, ptr %15, align 4
  %25 = call ptr @proto_tree_add_item(ptr noundef %21, i32 noundef %22, ptr noundef %23, i32 noundef %24, i32 noundef 1, i32 noundef 0)
  %26 = load ptr, ptr %10, align 8
  %27 = getelementptr inbounds nuw %struct._packet_info, ptr %26, i32 0, i32 1
  %28 = load ptr, ptr %27, align 8
  %29 = load i8, ptr %16, align 1
  %30 = zext i8 %29 to i32
  %31 = call ptr @val_to_str_ext_const(i32 noundef %30, ptr noundef @nas_eps_esm_cause_vals_ext, ptr noundef @.str.957)
  call void (ptr, i32, ptr, ...) @col_append_fstr(ptr noundef %28, i32 noundef 25, ptr noundef @.str.956, ptr noundef %31)
  %32 = load i32, ptr %15, align 4
  %33 = add i32 %32, 1
  store i32 %33, ptr %15, align 4
  %34 = load i32, ptr %15, align 4
  %35 = load i32, ptr %11, align 4
  %36 = sub i32 %34, %35
  %37 = trunc i32 %36 to i16
  call void @llvm.lifetime.end.p0(i64 1, ptr %16) #10
  call void @llvm.lifetime.end.p0(i64 4, ptr %15) #10
  ret i16 %37
}